; Function Attrs: nounwind uwtable
define ptr @Kit_DsdTruthCompute(ptr noundef %0, ptr noundef %1) local_unnamed_addr #0 {
  %3 = load i16, ptr %1, align 8, !tbaa !34
  %.not22 = icmp eq i16 %3, 0
  br i1 %.not22, label %._crit_edge, label %.lr.ph

.lr.ph:                                           ; preds = %2
  %4 = getelementptr inbounds nuw i8, ptr %0, i64 16
  %5 = load ptr, ptr %4, align 8, !tbaa !25
  %6 = getelementptr i8, ptr %5, i64 8
  %.val15 = load ptr, ptr %6, align 8, !tbaa !19
  %7 = getelementptr inbounds nuw i8, ptr %0, i64 8
  %8 = load ptr, ptr %7, align 8, !tbaa !24
  %9 = getelementptr i8, ptr %8, i64 8
  %.val = load ptr, ptr %9, align 8, !tbaa !19
  %wide.trip.count = zext i16 %3 to i64
  br label %10

10:                                               ; preds = %.lr.ph, %Kit_TruthCopy.exit
  %indvars.iv = phi i64 [ 0, %.lr.ph ], [ %indvars.iv.next, %Kit_TruthCopy.exit ]
  %11 = getelementptr inbounds nuw ptr, ptr %.val15, i64 %indvars.iv
  %12 = load ptr, ptr %11, align 8, !tbaa !13
  %13 = getelementptr inbounds nuw ptr, ptr %.val, i64 %indvars.iv
  %14 = load ptr, ptr %13, align 8, !tbaa !13
  %15 = load i32, ptr %0, align 8, !tbaa !3
  %16 = icmp slt i32 %15, 6
  %17 = add nsw i32 %15, -5
  %18 = shl nuw i32 1, %17
  %spec.select.i = select i1 %16, i32 1, i32 %18
  %19 = icmp sgt i32 %spec.select.i, 0
  br i1 %19, label %select.unfold.preheader.i, label %Kit_TruthCopy.exit

select.unfold.preheader.i:                        ; preds = %10
  %20 = zext nneg i32 %spec.select.i to i64
  br label %select.unfold.i

select.unfold.i:                                  ; preds = %select.unfold.i, %select.unfold.preheader.i
  %indvars.iv.i = phi i64 [ %20, %select.unfold.preheader.i ], [ %indvars.iv.next.i, %select.unfold.i ]
  %indvars.iv.next.i = add nsw i64 %indvars.iv.i, -1
  %21 = getelementptr inbounds nuw i32, ptr %14, i64 %indvars.iv.next.i
  %22 = load i32, ptr %21, align 4, !tbaa !20
  %23 = getelementptr inbounds nuw i32, ptr %12, i64 %indvars.iv.next.i
  store i32 %22, ptr %23, align 4, !tbaa !20
  %24 = icmp samesign ugt i64 %indvars.iv.i, 1
  br i1 %24, label %select.unfold.i, label %Kit_TruthCopy.exit, !llvm.loop !56

Kit_TruthCopy.exit:                               ; preds = %select.unfold.i, %10
  %indvars.iv.next = add nuw nsw i64 %indvars.iv, 1
  %exitcond.not = icmp eq i64 %indvars.iv.next, %wide.trip.count
  br i1 %exitcond.not, label %._crit_edge, label %10, !llvm.loop !57

._crit_edge:                                      ; preds = %Kit_TruthCopy.exit, %2
  %25 = getelementptr inbounds nuw i8, ptr %1, i64 6
  %26 = load i16, ptr %25, align 2, !tbaa !51
  %27 = lshr i16 %26, 1
  %28 = zext nneg i16 %27 to i32
  %29 = tail call ptr @Kit_DsdTruthComputeNode_rec(ptr noundef %0, ptr noundef nonnull %1, i32 noundef %28)
  %30 = load i16, ptr %25, align 2, !tbaa !51
  %31 = and i16 %30, 1
  %.not = icmp eq i16 %31, 0
  br i1 %.not, label %Kit_TruthNot.exit, label %32

32:                                               ; preds = %._crit_edge
  %33 = load i16, ptr %1, align 8, !tbaa !34
  %34 = zext i16 %33 to i32
  %35 = icmp ult i16 %33, 6
  %36 = add nsw i32 %34, -5
  %37 = shl nuw i32 1, %36
  %spec.select.i16 = select i1 %35, i32 1, i32 %37
  %38 = icmp sgt i32 %spec.select.i16, 0
  br i1 %38, label %select.unfold.preheader.i17, label %Kit_TruthNot.exit

select.unfold.preheader.i17:                      ; preds = %32
  %39 = zext nneg i32 %spec.select.i16 to i64
  br label %select.unfold.i18

select.unfold.i18:                                ; preds = %select.unfold.i18, %select.unfold.preheader.i17
  %indvars.iv.i19 = phi i64 [ %39, %select.unfold.preheader.i17 ], [ %indvars.iv.next.i20, %select.unfold.i18 ]
  %indvars.iv.next.i20 = add nsw i64 %indvars.iv.i19, -1
  %40 = getelementptr inbounds nuw i32, ptr %29, i64 %indvars.iv.next.i20
  %41 = load i32, ptr %40, align 4, !tbaa !20
  %42 = xor i32 %41, -1
  store i32 %42, ptr %40, align 4, !tbaa !20
  %43 = icmp samesign ugt i64 %indvars.iv.i19, 1
  br i1 %43, label %select.unfold.i18, label %Kit_TruthNot.exit, !llvm.loop !58

Kit_TruthNot.exit:                                ; preds = %select.unfold.i18, %32, %._crit_edge
  ret ptr %29
}